target datalayout = "e-m:e-p270:32:32-p271:32:32-p272:64:64-i64:64-i128:128-f80:128-n8:16:32:64-S128"
target triple = "x86_64-pc-linux-gnu"

%struct.FFOutputFormat = type { %struct.AVOutputFormat, i32, i32, ptr, ptr, ptr, ptr, ptr, ptr, ptr, ptr, ptr, ptr, ptr, ptr }
%struct.AVOutputFormat = type { ptr, ptr, ptr, ptr, i32, i32, i32, i32, ptr, ptr }
%struct.AVRational = type { i32, i32 }
%struct.AVFormatContext = type { ptr, ptr, ptr, ptr, ptr, i32, i32, ptr, i32, ptr, i32, ptr, ptr, i64, i64, i64, i32, i32, i32, i64, i64, ptr, i32, i32, ptr, i32, i32, i32, i32, ptr, i64, i32, i32, %struct.AVIOInterruptCB, i32, i32, i32, i32, i64, i32, i32, i32, i32, i32, i32, i32, i32, i32, i32, i32, i32, i64, i32, i32, i32, i32, i32, ptr, ptr, ptr, ptr, i32, ptr, ptr, ptr, ptr, i32, ptr, ptr, i64, ptr, ptr, ptr, i64 }
%struct.AVIOInterruptCB = type { ptr, ptr }
%struct.AVStream = type { ptr, i32, i32, ptr, ptr, %struct.AVRational, i64, i64, i64, i32, i32, %struct.AVRational, ptr, %struct.AVRational, %struct.AVPacket, i32, %struct.AVRational, i32 }
%struct.AVPacket = type { ptr, i64, i64, ptr, i32, i32, i32, ptr, i32, i64, i64, ptr, ptr, %struct.AVRational }
%struct.AVCodecParameters = type { i32, i32, i32, ptr, i32, ptr, i32, i32, i64, i32, i32, i32, i32, i32, i32, %struct.AVRational, %struct.AVRational, i32, i32, i32, i32, i32, i32, i32, %struct.AVChannelLayout, i32, i32, i32, i32, i32, i32 }
%struct.AVChannelLayout = type { i32, i32, %union.anon, ptr }
%union.anon = type { i64 }

@.str = private unnamed_addr constant [9 x i8] c"microdvd\00", align 1
@.str.1 = private unnamed_addr constant [25 x i8] c"MicroDVD subtitle format\00", align 1
@.str.2 = private unnamed_addr constant [16 x i8] c"text/x-microdvd\00", align 1
@.str.3 = private unnamed_addr constant [4 x i8] c"sub\00", align 1
@ff_microdvd_muxer = constant %struct.FFOutputFormat { %struct.AVOutputFormat { ptr @.str, ptr @.str.1, ptr @.str.2, ptr @.str.3, i32 0, i32 0, i32 94217, i32 128, ptr null, ptr null }, i32 0, i32 12, ptr @microdvd_write_header, ptr @microdvd_write_packet, ptr null, ptr null, ptr null, ptr null, ptr null, ptr null, ptr null, ptr null, ptr null, ptr null }, align 8
@.str.4 = private unnamed_addr constant [12 x i8] c"{DEFAULT}{}\00", align 1
@.str.5 = private unnamed_addr constant [6 x i8] c"{%ld}\00", align 1
@.str.6 = private unnamed_addr constant [3 x i8] c"{}\00", align 1

; Function Attrs: nounwind uwtable
define internal i32 @microdvd_write_header(ptr noundef %0) #0 {
  %2 = alloca ptr, align 8
  %3 = alloca ptr, align 8
  %4 = alloca %struct.AVRational, align 4
  store ptr %0, ptr %2, align 8, !tbaa !4
  call void @llvm.lifetime.start.p0(i64 8, ptr %3) #4
  %5 = load ptr, ptr %2, align 8, !tbaa !4
  %6 = getelementptr inbounds nuw %struct.AVFormatContext, ptr %5, i32 0, i32 7
  %7 = load ptr, ptr %6, align 8, !tbaa !9
  %8 = getelementptr inbounds ptr, ptr %7, i64 0
  %9 = load ptr, ptr %8, align 8, !tbaa !26
  %10 = getelementptr inbounds nuw %struct.AVStream, ptr %9, i32 0, i32 3
  %11 = load ptr, ptr %10, align 8, !tbaa !28
  store ptr %11, ptr %3, align 8, !tbaa !35
  call void @llvm.lifetime.start.p0(i64 8, ptr %4) #4
  %12 = load ptr, ptr %2, align 8, !tbaa !4
  %13 = getelementptr inbounds nuw %struct.AVFormatContext, ptr %12, i32 0, i32 7
  %14 = load ptr, ptr %13, align 8, !tbaa !9
  %15 = getelementptr inbounds ptr, ptr %14, i64 0
  %16 = load ptr, ptr %15, align 8, !tbaa !26
  %17 = getelementptr inbounds nuw %struct.AVStream, ptr %16, i32 0, i32 13
  call void @llvm.memcpy.p0.p0.i64(ptr align 4 %4, ptr align 8 %17, i64 8, i1 false), !tbaa.struct !36
  %18 = load ptr, ptr %3, align 8, !tbaa !35
  %19 = getelementptr inbounds nuw %struct.AVCodecParameters, ptr %18, i32 0, i32 3
  %20 = load ptr, ptr %19, align 8, !tbaa !38
  %21 = icmp ne ptr %20, null
  br i1 %21, label %22, label %43

22:                                               ; preds = %1
  %23 = load ptr, ptr %3, align 8, !tbaa !35
  %24 = getelementptr inbounds nuw %struct.AVCodecParameters, ptr %23, i32 0, i32 4
  %25 = load i32, ptr %24, align 8, !tbaa !41
  %26 = icmp sgt i32 %25, 0
  br i1 %26, label %27, label %43

27:                                               ; preds = %22
  %28 = load ptr, ptr %2, align 8, !tbaa !4
  %29 = getelementptr inbounds nuw %struct.AVFormatContext, ptr %28, i32 0, i32 4
  %30 = load ptr, ptr %29, align 8, !tbaa !42
  call void @avio_write(ptr noundef %30, ptr noundef @.str.4, i32 noundef 11)
  %31 = load ptr, ptr %2, align 8, !tbaa !4
  %32 = getelementptr inbounds nuw %struct.AVFormatContext, ptr %31, i32 0, i32 4
  %33 = load ptr, ptr %32, align 8, !tbaa !42
  %34 = load ptr, ptr %3, align 8, !tbaa !35
  %35 = getelementptr inbounds nuw %struct.AVCodecParameters, ptr %34, i32 0, i32 3
  %36 = load ptr, ptr %35, align 8, !tbaa !38
  %37 = load ptr, ptr %3, align 8, !tbaa !35
  %38 = getelementptr inbounds nuw %struct.AVCodecParameters, ptr %37, i32 0, i32 4
  %39 = load i32, ptr %38, align 8, !tbaa !41
  call void @avio_write(ptr noundef %33, ptr noundef %36, i32 noundef %39)
  %40 = load ptr, ptr %2, align 8, !tbaa !4
  %41 = getelementptr inbounds nuw %struct.AVFormatContext, ptr %40, i32 0, i32 4
  %42 = load ptr, ptr %41, align 8, !tbaa !42
  call void @avio_w8(ptr noundef %42, i32 noundef 10)
  br label %43

43:                                               ; preds = %27, %22, %1
  %44 = load ptr, ptr %2, align 8, !tbaa !4
  %45 = getelementptr inbounds nuw %struct.AVFormatContext, ptr %44, i32 0, i32 7
  %46 = load ptr, ptr %45, align 8, !tbaa !9
  %47 = getelementptr inbounds ptr, ptr %46, i64 0
  %48 = load ptr, ptr %47, align 8, !tbaa !26
  %49 = getelementptr inbounds nuw %struct.AVRational, ptr %4, i32 0, i32 0
  %50 = load i32, ptr %49, align 4, !tbaa !43
  %51 = getelementptr inbounds nuw %struct.AVRational, ptr %4, i32 0, i32 1
  %52 = load i32, ptr %51, align 4, !tbaa !44
  call void @avpriv_set_pts_info(ptr noundef %48, i32 noundef 64, i32 noundef %50, i32 noundef %52)
  call void @llvm.lifetime.end.p0(i64 8, ptr %4) #4
  call void @llvm.lifetime.end.p0(i64 8, ptr %3) #4
  ret i32 0
}

; Function Attrs: nounwind uwtable
define internal i32 @microdvd_write_packet(ptr noundef %0, ptr noundef %1) #0 {
  %3 = alloca ptr, align 8
  %4 = alloca ptr, align 8
  store ptr %0, ptr %3, align 8, !tbaa !4
  store ptr %1, ptr %4, align 8, !tbaa !45
  %5 = load ptr, ptr %3, align 8, !tbaa !4
  %6 = getelementptr inbounds nuw %struct.AVFormatContext, ptr %5, i32 0, i32 4
  %7 = load ptr, ptr %6, align 8, !tbaa !42
  %8 = load ptr, ptr %4, align 8, !tbaa !45
  %9 = getelementptr inbounds nuw %struct.AVPacket, ptr %8, i32 0, i32 1
  %10 = load i64, ptr %9, align 8, !tbaa !47
  %11 = call i32 (ptr, ptr, ...) @avio_printf(ptr noundef %7, ptr noundef @.str.5, i64 noundef %10)
  %12 = load ptr, ptr %4, align 8, !tbaa !45
  %13 = getelementptr inbounds nuw %struct.AVPacket, ptr %12, i32 0, i32 9
  %14 = load i64, ptr %13, align 8, !tbaa !48
  %15 = icmp slt i64 %14, 0
  br i1 %15, label %16, label %20

16:                                               ; preds = %2
  %17 = load ptr, ptr %3, align 8, !tbaa !4
  %18 = getelementptr inbounds nuw %struct.AVFormatContext, ptr %17, i32 0, i32 4
  %19 = load ptr, ptr %18, align 8, !tbaa !42
  call void @avio_write(ptr noundef %19, ptr noundef @.str.6, i32 noundef 2)
  br label %32

20:                                               ; preds = %2
  %21 = load ptr, ptr %3, align 8, !tbaa !4
  %22 = getelementptr inbounds nuw %struct.AVFormatContext, ptr %21, i32 0, i32 4
  %23 = load ptr, ptr %22, align 8, !tbaa !42
  %24 = load ptr, ptr %4, align 8, !tbaa !45
  %25 = getelementptr inbounds nuw %struct.AVPacket, ptr %24, i32 0, i32 1
  %26 = load i64, ptr %25, align 8, !tbaa !47
  %27 = load ptr, ptr %4, align 8, !tbaa !45
  %28 = getelementptr inbounds nuw %struct.AVPacket, ptr %27, i32 0, i32 9
  %29 = load i64, ptr %28, align 8, !tbaa !48
  %30 = add nsw i64 %26, %29
  %31 = call i32 (ptr, ptr, ...) @avio_printf(ptr noundef %23, ptr noundef @.str.5, i64 noundef %30)
  br label %32

32:                                               ; preds = %20, %16
  %33 = load ptr, ptr %3, align 8, !tbaa !4
  %34 = getelementptr inbounds nuw %struct.AVFormatContext, ptr %33, i32 0, i32 4
  %35 = load ptr, ptr %34, align 8, !tbaa !42
  %36 = load ptr, ptr %4, align 8, !tbaa !45
  %37 = getelementptr inbounds nuw %struct.AVPacket, ptr %36, i32 0, i32 3
  %38 = load ptr, ptr %37, align 8, !tbaa !49
  %39 = load ptr, ptr %4, align 8, !tbaa !45
  %40 = getelementptr inbounds nuw %struct.AVPacket, ptr %39, i32 0, i32 4
  %41 = load i32, ptr %40, align 8, !tbaa !50
  call void @avio_write(ptr noundef %35, ptr noundef %38, i32 noundef %41)
  %42 = load ptr, ptr %3, align 8, !tbaa !4
  %43 = getelementptr inbounds nuw %struct.AVFormatContext, ptr %42, i32 0, i32 4
  %44 = load ptr, ptr %43, align 8, !tbaa !42
  call void @avio_w8(ptr noundef %44, i32 noundef 10)
  ret i32 0
}

; Function Attrs: nocallback nofree nosync nounwind willreturn memory(argmem: readwrite)
declare void @llvm.lifetime.start.p0(i64 immarg, ptr captures(none)) #1

; Function Attrs: nocallback nofree nounwind willreturn memory(argmem: readwrite)
declare void @llvm.memcpy.p0.p0.i64(ptr noalias writeonly captures(none), ptr noalias readonly captures(none), i64, i1 immarg) #2

declare void @avio_write(ptr noundef, ptr noundef, i32 noundef) #3

declare void @avio_w8(ptr noundef, i32 noundef) #3

declare void @avpriv_set_pts_info(ptr noundef, i32 noundef, i32 noundef, i32 noundef) #3

; Function Attrs: nocallback nofree nosync nounwind willreturn memory(argmem: readwrite)
declare void @llvm.lifetime.end.p0(i64 immarg, ptr captures(none)) #1

declare i32 @avio_printf(ptr noundef, ptr noundef, ...) #3


!llvm.module.flags = !{!0, !1, !2, !3}

!0 = !{i32 1, !"wchar_size", i32 4}
!1 = !{i32 8, !"PIC Level", i32 2}
!2 = !{i32 7, !"uwtable", i32 2}
!3 = !{i32 1, !"override-stack-alignment", i32 16}
!4 = !{!5, !5, i64 0}
!5 = !{!"p1 _ZTS15AVFormatContext", !6, i64 0}
!6 = !{!"any pointer", !7, i64 0}
!7 = !{!"omnipotent char", !8, i64 0}
!8 = !{!"Simple C/C++ TBAA"}
!9 = !{!10, !16, i64 48}
!10 = !{!"AVFormatContext", !11, i64 0, !12, i64 8, !13, i64 16, !6, i64 24, !14, i64 32, !15, i64 40, !15, i64 44, !16, i64 48, !15, i64 56, !18, i64 64, !15, i64 72, !19, i64 80, !20, i64 88, !21, i64 96, !21, i64 104, !21, i64 112, !15, i64 120, !15, i64 124, !15, i64 128, !21, i64 136, !21, i64 144, !20, i64 152, !15, i64 160, !15, i64 164, !22, i64 168, !15, i64 176, !15, i64 180, !15, i64 184, !15, i64 188, !23, i64 192, !21, i64 200, !15, i64 208, !15, i64 212, !24, i64 216, !15, i64 232, !15, i64 236, !15, i64 240, !15, i64 244, !21, i64 248, !15, i64 256, !15, i64 260, !15, i64 264, !15, i64 268, !15, i64 272, !15, i64 276, !15, i64 280, !15, i64 284, !15, i64 288, !15, i64 292, !15, i64 296, !15, i64 300, !21, i64 304, !15, i64 312, !15, i64 316, !15, i64 320, !15, i64 324, !15, i64 328, !20, i64 336, !20, i64 344, !20, i64 352, !20, i64 360, !15, i64 368, !25, i64 376, !25, i64 384, !25, i64 392, !25, i64 400, !15, i64 408, !6, i64 416, !6, i64 424, !21, i64 432, !20, i64 440, !6, i64 448, !6, i64 456, !21, i64 464}
!11 = !{!"p1 _ZTS7AVClass", !6, i64 0}
!12 = !{!"p1 _ZTS13AVInputFormat", !6, i64 0}
!13 = !{!"p1 _ZTS14AVOutputFormat", !6, i64 0}
!14 = !{!"p1 _ZTS11AVIOContext", !6, i64 0}
!15 = !{!"int", !7, i64 0}
!16 = !{!"p2 _ZTS8AVStream", !17, i64 0}
!17 = !{!"any p2 pointer", !6, i64 0}
!18 = !{!"p2 _ZTS13AVStreamGroup", !17, i64 0}
!19 = !{!"p2 _ZTS9AVChapter", !17, i64 0}
!20 = !{!"p1 omnipotent char", !6, i64 0}
!21 = !{!"long", !7, i64 0}
!22 = !{!"p2 _ZTS9AVProgram", !17, i64 0}
!23 = !{!"p1 _ZTS12AVDictionary", !6, i64 0}
!24 = !{!"AVIOInterruptCB", !6, i64 0, !6, i64 8}
!25 = !{!"p1 _ZTS7AVCodec", !6, i64 0}
!26 = !{!27, !27, i64 0}
!27 = !{!"p1 _ZTS8AVStream", !6, i64 0}
!28 = !{!29, !30, i64 16}
!29 = !{!"AVStream", !11, i64 0, !15, i64 8, !15, i64 12, !30, i64 16, !6, i64 24, !31, i64 32, !21, i64 40, !21, i64 48, !21, i64 56, !15, i64 64, !15, i64 68, !31, i64 72, !23, i64 80, !31, i64 88, !32, i64 96, !15, i64 200, !31, i64 204, !15, i64 212}
!30 = !{!"p1 _ZTS17AVCodecParameters", !6, i64 0}
!31 = !{!"AVRational", !15, i64 0, !15, i64 4}
!32 = !{!"AVPacket", !33, i64 0, !21, i64 8, !21, i64 16, !20, i64 24, !15, i64 32, !15, i64 36, !15, i64 40, !34, i64 48, !15, i64 56, !21, i64 64, !21, i64 72, !6, i64 80, !33, i64 88, !31, i64 96}
!33 = !{!"p1 _ZTS11AVBufferRef", !6, i64 0}
!34 = !{!"p1 _ZTS16AVPacketSideData", !6, i64 0}
!35 = !{!30, !30, i64 0}
!36 = !{i64 0, i64 4, !37, i64 4, i64 4, !37}
!37 = !{!15, !15, i64 0}
!38 = !{!39, !20, i64 16}
!39 = !{!"AVCodecParameters", !15, i64 0, !15, i64 4, !15, i64 8, !20, i64 16, !15, i64 24, !34, i64 32, !15, i64 40, !15, i64 44, !21, i64 48, !15, i64 56, !15, i64 60, !15, i64 64, !15, i64 68, !15, i64 72, !15, i64 76, !31, i64 80, !31, i64 88, !15, i64 96, !15, i64 100, !15, i64 104, !15, i64 108, !15, i64 112, !15, i64 116, !15, i64 120, !40, i64 128, !15, i64 152, !15, i64 156, !15, i64 160, !15, i64 164, !15, i64 168, !15, i64 172}
!40 = !{!"AVChannelLayout", !15, i64 0, !15, i64 4, !7, i64 8, !6, i64 16}
!41 = !{!39, !15, i64 24}
!42 = !{!10, !14, i64 32}
!43 = !{!31, !15, i64 0}
!44 = !{!31, !15, i64 4}
!45 = !{!46, !46, i64 0}
!46 = !{!"p1 _ZTS8AVPacket", !6, i64 0}
!47 = !{!32, !21, i64 8}
!48 = !{!32, !21, i64 64}
!49 = !{!32, !20, i64 24}
!50 = !{!32, !15, i64 32}
